; Function Attrs: mustprogress uwtable
define void @_ZN6icu_756number12SimpleNumber8forInt64ElR10UErrorCode(ptr noalias sret(%"class.icu_75::number::SimpleNumber") align 8 %agg.result, i64 noundef %value, ptr noundef nonnull align 4 dereferenceable(4) %status) local_unnamed_addr #1 align 2 personality ptr @__gxx_personality_v0 {
entry:
  %0 = load i32, ptr %status, align 4
  %cmp.i = icmp slt i32 %0, 1
  br i1 %cmp.i, label %if.end, label %if.then

if.then:                                          ; preds = %entry
  %fSign.i = getelementptr inbounds i8, ptr %agg.result, i64 8
  tail call void @llvm.memset.p0.i64(ptr noundef nonnull align 8 dereferenceable(16) %agg.result, i8 0, i64 16, i1 false)
  store i32 1, ptr %fSign.i, align 8
  br label %return

if.end:                                           ; preds = %entry
  %call1 = tail call noundef ptr @_ZN6icu_757UMemorynwEm(i64 noundef 408) #11
  %new.isnull = icmp eq ptr %call1, null
  br i1 %new.isnull, label %if.then2, label %new.notnull

new.notnull:                                      ; preds = %if.end
  invoke void @_ZN6icu_7531FormattedValueStringBuilderImplC2ENS_22FormattedStringBuilder5FieldE(ptr noundef nonnull align 8 dereferenceable(300) %call1, i8 0)
          to label %.noexc unwind label %lpad

.noexc:                                           ; preds = %new.notnull
  store ptr getelementptr inbounds ({ [8 x ptr] }, ptr @_ZTVN6icu_756number4impl20UFormattedNumberDataE, i64 0, i32 0, i64 2), ptr %call1, align 8
  %quantity.i = getelementptr inbounds i8, ptr %call1, i64 304
  invoke void @_ZN6icu_756number4impl15DecimalQuantityC1Ev(ptr noundef nonnull align 8 dereferenceable(66) %quantity.i)
          to label %invoke.cont.i unwind label %lpad.i

invoke.cont.i:                                    ; preds = %.noexc
  %outputUnit.i = getelementptr inbounds i8, ptr %call1, i64 376
  invoke void @_ZN6icu_7511MeasureUnitC1Ev(ptr noundef nonnull align 8 dereferenceable(19) %outputUnit.i)
          to label %if.end3 unwind label %lpad2.i

lpad.i:                                           ; preds = %.noexc
  %1 = landingpad { ptr, i32 }
          cleanup
  br label %ehcleanup.i

lpad2.i:                                          ; preds = %invoke.cont.i
  %2 = landingpad { ptr, i32 }
          cleanup
  tail call void @_ZN6icu_756number4impl15DecimalQuantityD1Ev(ptr noundef nonnull align 8 dereferenceable(66) %quantity.i) #11
  br label %ehcleanup.i

ehcleanup.i:                                      ; preds = %lpad2.i, %lpad.i
  %.pn.i = phi { ptr, i32 } [ %2, %lpad2.i ], [ %1, %lpad.i ]
  tail call void @_ZN6icu_7531FormattedValueStringBuilderImplD2Ev(ptr noundef nonnull align 8 dereferenceable(300) %call1) #11
  br label %lpad.body

if.then2:                                         ; preds = %if.end
  store i32 7, ptr %status, align 4
  %fSign.i5 = getelementptr inbounds i8, ptr %agg.result, i64 8
  tail call void @llvm.memset.p0.i64(ptr noundef nonnull align 8 dereferenceable(16) %agg.result, i8 0, i64 16, i1 false)
  store i32 1, ptr %fSign.i5, align 8
  br label %return

lpad:                                             ; preds = %new.notnull
  %3 = landingpad { ptr, i32 }
          cleanup
  br label %lpad.body

lpad.body:                                        ; preds = %ehcleanup.i, %lpad
  %eh.lpad-body = phi { ptr, i32 } [ %3, %lpad ], [ %.pn.i, %ehcleanup.i ]
  tail call void @_ZN6icu_757UMemorydlEPv(ptr noundef nonnull %call1) #11
  resume { ptr, i32 } %eh.lpad-body

if.end3:                                          ; preds = %invoke.cont.i
  %gender.i = getelementptr inbounds i8, ptr %call1, i64 400
  store ptr @.str, ptr %gender.i, align 8
  %call4 = tail call noundef nonnull align 8 dereferenceable(66) ptr @_ZN6icu_756number4impl15DecimalQuantity9setToLongEl(ptr noundef nonnull align 8 dereferenceable(66) %quantity.i, i64 noundef %value)
  tail call void @_ZN6icu_756number12SimpleNumberC1EPNS0_4impl20UFormattedNumberDataER10UErrorCode(ptr noundef nonnull align 8 dereferenceable(12) %agg.result, ptr noundef nonnull %call1, ptr noundef nonnull align 4 dereferenceable(4) %status)
  br label %return

return:                                           ; preds = %if.end3, %if.then2, %if.then
  ret void
}